target datalayout = "e-m:e-p270:32:32-p271:32:32-p272:64:64-i64:64-i128:128-f80:128-n8:16:32:64-S128"
target triple = "x86_64-pc-linux-gnu"

%struct.H5O_ginfo_t = type { i32, i8, i16, i16, i8, i16, i16 }
%struct.H5CX_node_t = type { %struct.H5CX_t, ptr }
%struct.H5CX_t = type { i64, ptr, i64, ptr, i64, ptr, i64, ptr, i64, ptr, i64, ptr, i64, i32, i64, i8, ptr, i8, ptr, i8, i32, i8, [3 x double], i8, i64, i8, i32, i8, %struct.H5Z_cb_t, i8, ptr, i8, %struct.H5T_vlen_alloc_info_t, i8, %struct.H5T_conv_cb_t, i8, i32, i8, i8, i8, i32, i8, i8, i32, i8, i8, i32, i8, i32, i8, i64, i8, i8, i8, i8, i8, ptr, i8, ptr, i8, i32, i8, i32, i8, %struct.H5VL_connector_prop_t, i8, ptr, i8 }
%struct.H5Z_cb_t = type { ptr, ptr }
%struct.H5T_vlen_alloc_info_t = type { ptr, ptr, ptr, ptr }
%struct.H5T_conv_cb_t = type { ptr, ptr }
%struct.H5VL_connector_prop_t = type { ptr, ptr }

@H5P_CLS_GROUP_CREATE_ID_g = external global i64, align 8
@H5_libinit_g = external global i8, align 1
@H5_libterm_g = external global i8, align 1
@.str.1 = private unnamed_addr constant [101 x i8] c"generated/home/dtcxzyw/WorkSpace/Projects/compilers/llvm-opt-benchmark/bench/hdf5/hdf5/src/H5Pgcpl.c\00", align 1
@__func__.H5Pset_local_heap_size_hint = private unnamed_addr constant [28 x i8] c"H5Pset_local_heap_size_hint\00", align 1
@H5E_FUNC_g = external global i64, align 8
@H5E_CANTINIT_g = external global i64, align 8
@.str.2 = private unnamed_addr constant [30 x i8] c"library initialization failed\00", align 1
@H5P_init_g = external global i8, align 1
@.str.3 = private unnamed_addr constant [32 x i8] c"interface initialization failed\00", align 1
@H5E_CANTSET_g = external global i64, align 8
@.str.4 = private unnamed_addr constant [22 x i8] c"can't set API context\00", align 1
@H5E_ID_g = external global i64, align 8
@H5E_BADID_g = external global i64, align 8
@.str.5 = private unnamed_addr constant [25 x i8] c"can't find object for ID\00", align 1
@.str.6 = private unnamed_addr constant [11 x i8] c"group info\00", align 1
@H5E_PLIST_g = external global i64, align 8
@H5E_CANTGET_g = external global i64, align 8
@.str.7 = private unnamed_addr constant [21 x i8] c"can't get group info\00", align 1
@.str.8 = private unnamed_addr constant [21 x i8] c"can't set group info\00", align 1

; Function Attrs: nounwind uwtable
define i32 @H5Pset_local_heap_size_hint(i64 noundef %0, i64 noundef %1) #0 {
  %3 = alloca i64, align 8
  %4 = alloca i64, align 8
  %5 = alloca ptr, align 8
  %6 = alloca %struct.H5O_ginfo_t, align 4
  %7 = alloca i32, align 4
  %8 = alloca %struct.H5CX_node_t, align 8
  %9 = alloca i8, align 1
  %10 = alloca i8, align 1
  store i64 %0, ptr %3, align 8, !tbaa !14
  store i64 %1, ptr %4, align 8, !tbaa !14
  call void @llvm.lifetime.start.p0(i64 8, ptr %5) #6
  call void @llvm.lifetime.start.p0(i64 16, ptr %6) #6
  call void @llvm.lifetime.start.p0(i64 4, ptr %7) #6
  store i32 0, ptr %7, align 4, !tbaa !8
  call void @llvm.lifetime.start.p0(i64 480, ptr %8) #6
  call void @llvm.memset.p0.i64(ptr align 8 %8, i8 0, i64 480, i1 false)
  call void @llvm.lifetime.start.p0(i64 1, ptr %9) #6
  store i8 0, ptr %9, align 1, !tbaa !10
  call void @llvm.lifetime.start.p0(i64 1, ptr %10) #6
  store i8 0, ptr %10, align 1, !tbaa !10
  br label %11

11:                                               ; preds = %2
  %12 = load i8, ptr @H5_libinit_g, align 1, !tbaa !10, !range !12, !noundef !13
  %13 = trunc i8 %12 to i1
  br i1 %13, label %18, label %14

14:                                               ; preds = %11
  %15 = load i8, ptr @H5_libterm_g, align 1, !tbaa !10, !range !12, !noundef !13
  %16 = trunc i8 %15 to i1
  %17 = xor i1 %16, true
  br label %18

18:                                               ; preds = %14, %11
  %19 = phi i1 [ false, %11 ], [ %17, %14 ]
  %20 = xor i1 %19, true
  %21 = xor i1 %20, true
  %22 = zext i1 %21 to i32
  %23 = sext i32 %22 to i64
  %24 = call i64 @llvm.expect.i64(i64 %23, i64 0)
  %25 = icmp ne i64 %24, 0
  br i1 %25, label %26, label %55

26:                                               ; preds = %18
  %27 = call i32 @H5_init_library()
  %28 = icmp slt i32 %27, 0
  %29 = xor i1 %28, true
  %30 = xor i1 %29, true
  %31 = zext i1 %30 to i32
  %32 = sext i32 %31 to i64
  %33 = call i64 @llvm.expect.i64(i64 %32, i64 0)
  %34 = icmp ne i64 %33, 0
  br i1 %34, label %35, label %54

35:                                               ; preds = %26
  br label %36

36:                                               ; preds = %35
  br label %37

37:                                               ; preds = %36
  br label %38

38:                                               ; preds = %37
  %39 = load i64, ptr @H5E_FUNC_g, align 8, !tbaa !14
  %40 = load i64, ptr @H5E_CANTINIT_g, align 8, !tbaa !14
  %41 = call i32 (ptr, ptr, i32, i64, i64, ptr, ...) @H5E_printf_stack(ptr noundef @.str.1, ptr noundef @__func__.H5Pset_local_heap_size_hint, i32 noundef 151, i64 noundef %39, i64 noundef %40, ptr noundef @.str.2)
  br label %42

42:                                               ; preds = %38
  br label %43

43:                                               ; preds = %42
  store i8 1, ptr %10, align 1, !tbaa !10
  %44 = load i8, ptr %10, align 1, !tbaa !10, !range !12, !noundef !13
  %45 = trunc i8 %44 to i1
  %46 = zext i1 %45 to i8
  store i8 %46, ptr %10, align 1, !tbaa !10
  br label %47

47:                                               ; preds = %43
  br label %48

48:                                               ; preds = %47
  br label %49

49:                                               ; preds = %48
  store i32 -1, ptr %7, align 4, !tbaa !8
  br label %205

50:                                               ; No predecessors!
  br label %51

51:                                               ; preds = %50
  br label %52

52:                                               ; preds = %51
  br label %53

53:                                               ; preds = %52
  br label %54

54:                                               ; preds = %53, %26
  br label %55

55:                                               ; preds = %54, %18
  %56 = load i8, ptr @H5P_init_g, align 1, !tbaa !10, !range !12, !noundef !13
  %57 = trunc i8 %56 to i1
  br i1 %57, label %62, label %58

58:                                               ; preds = %55
  %59 = load i8, ptr @H5_libterm_g, align 1, !tbaa !10, !range !12, !noundef !13
  %60 = trunc i8 %59 to i1
  %61 = xor i1 %60, true
  br label %62

62:                                               ; preds = %58, %55
  %63 = phi i1 [ false, %55 ], [ %61, %58 ]
  %64 = xor i1 %63, true
  %65 = xor i1 %64, true
  %66 = zext i1 %65 to i32
  %67 = sext i32 %66 to i64
  %68 = call i64 @llvm.expect.i64(i64 %67, i64 0)
  %69 = icmp ne i64 %68, 0
  br i1 %69, label %70, label %93

70:                                               ; preds = %62
  store i8 1, ptr @H5P_init_g, align 1, !tbaa !10
  %71 = call i32 @H5P__init_package()
  %72 = icmp slt i32 %71, 0
  br i1 %72, label %73, label %92

73:                                               ; preds = %70
  store i8 0, ptr @H5P_init_g, align 1, !tbaa !10
  br label %74

74:                                               ; preds = %73
  br label %75

75:                                               ; preds = %74
  br label %76

76:                                               ; preds = %75
  %77 = load i64, ptr @H5E_FUNC_g, align 8, !tbaa !14
  %78 = load i64, ptr @H5E_CANTINIT_g, align 8, !tbaa !14
  %79 = call i32 (ptr, ptr, i32, i64, i64, ptr, ...) @H5E_printf_stack(ptr noundef @.str.1, ptr noundef @__func__.H5Pset_local_heap_size_hint, i32 noundef 151, i64 noundef %77, i64 noundef %78, ptr noundef @.str.3)
  br label %80

80:                                               ; preds = %76
  br label %81

81:                                               ; preds = %80
  store i8 1, ptr %10, align 1, !tbaa !10
  %82 = load i8, ptr %10, align 1, !tbaa !10, !range !12, !noundef !13
  %83 = trunc i8 %82 to i1
  %84 = zext i1 %83 to i8
  store i8 %84, ptr %10, align 1, !tbaa !10
  br label %85

85:                                               ; preds = %81
  br label %86

86:                                               ; preds = %85
  br label %87

87:                                               ; preds = %86
  store i32 -1, ptr %7, align 4, !tbaa !8
  br label %205

88:                                               ; No predecessors!
  br label %89

89:                                               ; preds = %88
  br label %90

90:                                               ; preds = %89
  br label %91

91:                                               ; preds = %90
  br label %92

92:                                               ; preds = %91, %70
  br label %93

93:                                               ; preds = %92, %62
  br label %94

94:                                               ; preds = %93
  br label %95

95:                                               ; preds = %94
  br label %96

96:                                               ; preds = %95
  %97 = call i32 @H5CX_push(ptr noundef %8)
  %98 = icmp slt i32 %97, 0
  %99 = xor i1 %98, true
  %100 = xor i1 %99, true
  %101 = zext i1 %100 to i32
  %102 = sext i32 %101 to i64
  %103 = call i64 @llvm.expect.i64(i64 %102, i64 0)
  %104 = icmp ne i64 %103, 0
  br i1 %104, label %105, label %124

105:                                              ; preds = %96
  br label %106

106:                                              ; preds = %105
  br label %107

107:                                              ; preds = %106
  br label %108

108:                                              ; preds = %107
  %109 = load i64, ptr @H5E_FUNC_g, align 8, !tbaa !14
  %110 = load i64, ptr @H5E_CANTSET_g, align 8, !tbaa !14
  %111 = call i32 (ptr, ptr, i32, i64, i64, ptr, ...) @H5E_printf_stack(ptr noundef @.str.1, ptr noundef @__func__.H5Pset_local_heap_size_hint, i32 noundef 151, i64 noundef %109, i64 noundef %110, ptr noundef @.str.4)
  br label %112

112:                                              ; preds = %108
  br label %113

113:                                              ; preds = %112
  store i8 1, ptr %10, align 1, !tbaa !10
  %114 = load i8, ptr %10, align 1, !tbaa !10, !range !12, !noundef !13
  %115 = trunc i8 %114 to i1
  %116 = zext i1 %115 to i8
  store i8 %116, ptr %10, align 1, !tbaa !10
  br label %117

117:                                              ; preds = %113
  br label %118

118:                                              ; preds = %117
  br label %119

119:                                              ; preds = %118
  store i32 -1, ptr %7, align 4, !tbaa !8
  br label %205

120:                                              ; No predecessors!
  br label %121

121:                                              ; preds = %120
  br label %122

122:                                              ; preds = %121
  br label %123

123:                                              ; preds = %122
  br label %125

124:                                              ; preds = %96
  store i8 1, ptr %9, align 1, !tbaa !10
  br label %125

125:                                              ; preds = %124, %123
  br label %126

126:                                              ; preds = %125
  br label %127

127:                                              ; preds = %126
  %128 = call i32 @H5E_clear_stack()
  %129 = load i64, ptr %3, align 8, !tbaa !14
  %130 = load i64, ptr @H5P_CLS_GROUP_CREATE_ID_g, align 8, !tbaa !14
  %131 = call ptr @H5P_object_verify(i64 noundef %129, i64 noundef %130, i1 noundef zeroext false)
  store ptr %131, ptr %5, align 8, !tbaa !16
  %132 = icmp eq ptr null, %131
  br i1 %132, label %133, label %152

133:                                              ; preds = %127
  br label %134

134:                                              ; preds = %133
  br label %135

135:                                              ; preds = %134
  br label %136

136:                                              ; preds = %135
  %137 = load i64, ptr @H5E_ID_g, align 8, !tbaa !14
  %138 = load i64, ptr @H5E_BADID_g, align 8, !tbaa !14
  %139 = call i32 (ptr, ptr, i32, i64, i64, ptr, ...) @H5E_printf_stack(ptr noundef @.str.1, ptr noundef @__func__.H5Pset_local_heap_size_hint, i32 noundef 155, i64 noundef %137, i64 noundef %138, ptr noundef @.str.5)
  br label %140

140:                                              ; preds = %136
  br label %141

141:                                              ; preds = %140
  store i8 1, ptr %10, align 1, !tbaa !10
  %142 = load i8, ptr %10, align 1, !tbaa !10, !range !12, !noundef !13
  %143 = trunc i8 %142 to i1
  %144 = zext i1 %143 to i8
  store i8 %144, ptr %10, align 1, !tbaa !10
  br label %145

145:                                              ; preds = %141
  br label %146

146:                                              ; preds = %145
  br label %147

147:                                              ; preds = %146
  store i32 -1, ptr %7, align 4, !tbaa !8
  br label %205

148:                                              ; No predecessors!
  br label %149

149:                                              ; preds = %148
  br label %150

150:                                              ; preds = %149
  br label %151

151:                                              ; preds = %150
  br label %152

152:                                              ; preds = %151, %127
  %153 = load ptr, ptr %5, align 8, !tbaa !16
  %154 = call i32 @H5P_get(ptr noundef %153, ptr noundef @.str.6, ptr noundef %6)
  %155 = icmp slt i32 %154, 0
  br i1 %155, label %156, label %175

156:                                              ; preds = %152
  br label %157

157:                                              ; preds = %156
  br label %158

158:                                              ; preds = %157
  br label %159

159:                                              ; preds = %158
  %160 = load i64, ptr @H5E_PLIST_g, align 8, !tbaa !14
  %161 = load i64, ptr @H5E_CANTGET_g, align 8, !tbaa !14
  %162 = call i32 (ptr, ptr, i32, i64, i64, ptr, ...) @H5E_printf_stack(ptr noundef @.str.1, ptr noundef @__func__.H5Pset_local_heap_size_hint, i32 noundef 159, i64 noundef %160, i64 noundef %161, ptr noundef @.str.7)
  br label %163

163:                                              ; preds = %159
  br label %164

164:                                              ; preds = %163
  store i8 1, ptr %10, align 1, !tbaa !10
  %165 = load i8, ptr %10, align 1, !tbaa !10, !range !12, !noundef !13
  %166 = trunc i8 %165 to i1
  %167 = zext i1 %166 to i8
  store i8 %167, ptr %10, align 1, !tbaa !10
  br label %168

168:                                              ; preds = %164
  br label %169

169:                                              ; preds = %168
  br label %170

170:                                              ; preds = %169
  store i32 -1, ptr %7, align 4, !tbaa !8
  br label %205

171:                                              ; No predecessors!
  br label %172

172:                                              ; preds = %171
  br label %173

173:                                              ; preds = %172
  br label %174

174:                                              ; preds = %173
  br label %175

175:                                              ; preds = %174, %152
  br label %176

176:                                              ; preds = %175
  %177 = load i64, ptr %4, align 8, !tbaa !14
  %178 = trunc i64 %177 to i32
  %179 = getelementptr inbounds nuw %struct.H5O_ginfo_t, ptr %6, i32 0, i32 0
  store i32 %178, ptr %179, align 4, !tbaa !18
  br label %180

180:                                              ; preds = %176
  br label %181

181:                                              ; preds = %180
  %182 = load ptr, ptr %5, align 8, !tbaa !16
  %183 = call i32 @H5P_set(ptr noundef %182, ptr noundef @.str.6, ptr noundef %6)
  %184 = icmp slt i32 %183, 0
  br i1 %184, label %185, label %204

185:                                              ; preds = %181
  br label %186

186:                                              ; preds = %185
  br label %187

187:                                              ; preds = %186
  br label %188

188:                                              ; preds = %187
  %189 = load i64, ptr @H5E_PLIST_g, align 8, !tbaa !14
  %190 = load i64, ptr @H5E_CANTSET_g, align 8, !tbaa !14
  %191 = call i32 (ptr, ptr, i32, i64, i64, ptr, ...) @H5E_printf_stack(ptr noundef @.str.1, ptr noundef @__func__.H5Pset_local_heap_size_hint, i32 noundef 166, i64 noundef %189, i64 noundef %190, ptr noundef @.str.8)
  br label %192

192:                                              ; preds = %188
  br label %193

193:                                              ; preds = %192
  store i8 1, ptr %10, align 1, !tbaa !10
  %194 = load i8, ptr %10, align 1, !tbaa !10, !range !12, !noundef !13
  %195 = trunc i8 %194 to i1
  %196 = zext i1 %195 to i8
  store i8 %196, ptr %10, align 1, !tbaa !10
  br label %197

197:                                              ; preds = %193
  br label %198

198:                                              ; preds = %197
  br label %199

199:                                              ; preds = %198
  store i32 -1, ptr %7, align 4, !tbaa !8
  br label %205

200:                                              ; No predecessors!
  br label %201

201:                                              ; preds = %200
  br label %202

202:                                              ; preds = %201
  br label %203

203:                                              ; preds = %202
  br label %204

204:                                              ; preds = %203, %181
  br label %205

205:                                              ; preds = %204, %199, %170, %147, %119, %87, %49
  %206 = load i8, ptr %9, align 1, !tbaa !10, !range !12, !noundef !13
  %207 = trunc i8 %206 to i1
  %208 = xor i1 %207, true
  %209 = xor i1 %208, true
  %210 = zext i1 %209 to i32
  %211 = sext i32 %210 to i64
  %212 = call i64 @llvm.expect.i64(i64 %211, i64 1)
  %213 = icmp ne i64 %212, 0
  br i1 %213, label %214, label %216

214:                                              ; preds = %205
  %215 = call i32 @H5CX_pop(i1 noundef zeroext true)
  store i8 0, ptr %9, align 1, !tbaa !10
  br label %216

216:                                              ; preds = %214, %205
  %217 = load i8, ptr %10, align 1, !tbaa !10, !range !12, !noundef !13
  %218 = trunc i8 %217 to i1
  %219 = xor i1 %218, true
  %220 = xor i1 %219, true
  %221 = zext i1 %220 to i32
  %222 = sext i32 %221 to i64
  %223 = call i64 @llvm.expect.i64(i64 %222, i64 0)
  %224 = icmp ne i64 %223, 0
  br i1 %224, label %225, label %227

225:                                              ; preds = %216
  %226 = call i32 @H5E_dump_api_stack()
  br label %227

227:                                              ; preds = %225, %216
  %228 = load i32, ptr %7, align 4, !tbaa !8
  call void @llvm.lifetime.end.p0(i64 1, ptr %10) #6
  call void @llvm.lifetime.end.p0(i64 1, ptr %9) #6
  call void @llvm.lifetime.end.p0(i64 480, ptr %8) #6
  call void @llvm.lifetime.end.p0(i64 4, ptr %7) #6
  call void @llvm.lifetime.end.p0(i64 16, ptr %6) #6
  call void @llvm.lifetime.end.p0(i64 8, ptr %5) #6
  ret i32 %228
}